target datalayout = "e-m:e-p270:32:32-p271:32:32-p272:64:64-i64:64-i128:128-f80:128-n8:16:32:64-S128"
target triple = "x86_64-unknown-linux-gnu"

%struct.QemuMutex = type { %union.pthread_mutex_t, i8 }
%union.pthread_mutex_t = type { %struct.__pthread_mutex_s }
%struct.__pthread_mutex_s = type { i32, i32, i32, i32, i32, i16, i16, %struct.__pthread_internal_list }
%struct.__pthread_internal_list = type { ptr, ptr }
%struct.RAMList = type { %struct.QemuMutex, ptr, %struct.anon.0, [3 x ptr], i32, %struct.anon.1 }
%struct.anon.0 = type { ptr }
%struct.anon.1 = type { ptr }
%struct.RAMBlock = type { %struct.rcu_head, ptr, ptr, ptr, i64, i64, i64, ptr, i32, [256 x i8], %struct.anon.2, %struct.anon.3, i32, i64, i64, ptr, ptr, ptr, i8, i64 }
%struct.rcu_head = type { ptr, ptr }
%struct.anon.2 = type { ptr, ptr }
%struct.anon.3 = type { ptr }

@.str = private unnamed_addr constant [24 x i8] c"../qemu/migration/ram.c\00", align 1
@ram_list = external global %struct.RAMList, align 8
@__func__.ram_has_postcopy = private unnamed_addr constant [17 x i8] c"ram_has_postcopy\00", align 1
@.str.95 = private unnamed_addr constant [70 x i8] c"Block: %s, host: %p is a nvdimm memory, postcopyis not supported now!\00", align 1

; Function Attrs: nounwind sspstrong uwtable
define dso_local zeroext i1 @migrate_ram_is_ignored(ptr noundef %block) #0 {
entry:
  %block.addr = alloca ptr, align 8
  store ptr %block, ptr %block.addr, align 8
  %0 = load ptr, ptr %block.addr, align 8
  %call = call zeroext i1 @qemu_ram_is_migratable(ptr noundef %0)
  br i1 %call, label %lor.rhs, label %lor.end

lor.rhs:                                          ; preds = %entry
  %call1 = call zeroext i1 @migrate_ignore_shared()
  br i1 %call1, label %land.lhs.true, label %land.end

land.lhs.true:                                    ; preds = %lor.rhs
  %1 = load ptr, ptr %block.addr, align 8
  %call2 = call zeroext i1 @qemu_ram_is_shared(ptr noundef %1)
  br i1 %call2, label %land.rhs, label %land.end

land.rhs:                                         ; preds = %land.lhs.true
  %2 = load ptr, ptr %block.addr, align 8
  %call3 = call zeroext i1 @qemu_ram_is_named_file(ptr noundef %2)
  br label %land.end

land.end:                                         ; preds = %land.rhs, %land.lhs.true, %lor.rhs
  %3 = phi i1 [ false, %land.lhs.true ], [ false, %lor.rhs ], [ %call3, %land.rhs ]
  br label %lor.end

lor.end:                                          ; preds = %land.end, %entry
  %4 = phi i1 [ true, %entry ], [ %3, %land.end ]
  ret i1 %4
}

; Function Attrs: nounwind sspstrong uwtable
define internal zeroext i1 @ram_has_postcopy(ptr noundef %opaque) #0 {
entry:
  %retval = alloca i1, align 1
  %opaque.addr = alloca ptr, align 8
  %rb = alloca ptr, align 8
  %_val99 = alloca ptr, align 8
  %tmp = alloca ptr, align 8
  %_val100 = alloca ptr, align 8
  %tmp9 = alloca ptr, align 8
  store ptr %opaque, ptr %opaque.addr, align 8
  br label %while.cond

while.cond:                                       ; preds = %do.end, %entry
  br i1 false, label %while.body, label %while.end

while.body:                                       ; preds = %while.cond
  br label %do.body

do.body:                                          ; preds = %while.body
  call void @g_assertion_message_expr(ptr noundef null, ptr noundef @.str, i32 noundef 4072, ptr noundef @__func__.ram_has_postcopy, ptr noundef null) #12
  unreachable

do.end:                                           ; No predecessors!
  br label %while.cond

while.end:                                        ; preds = %while.cond
  %0 = getelementptr inbounds %struct.RAMList, ptr @ram_list, i32 0, i32 2
  %1 = load atomic i64, ptr %0 monotonic, align 8
  store i64 %1, ptr %_val99, align 8
  call void asm sideeffect "", "~{memory},~{dirflag},~{fpsr},~{flags}"() #13, !srcloc !97
  %2 = load ptr, ptr %_val99, align 8
  store ptr %2, ptr %tmp, align 8
  %3 = load ptr, ptr %tmp, align 8
  store ptr %3, ptr %rb, align 8
  br label %for.cond

for.cond:                                         ; preds = %while.end8, %while.end
  %4 = load ptr, ptr %rb, align 8
  %tobool = icmp ne ptr %4, null
  br i1 %tobool, label %for.body, label %for.end

for.body:                                         ; preds = %for.cond
  %5 = load ptr, ptr %rb, align 8
  %call = call zeroext i1 @migrate_ram_is_ignored(ptr noundef %5)
  br i1 %call, label %if.then, label %if.else

if.then:                                          ; preds = %for.body
  br label %if.end3

if.else:                                          ; preds = %for.body
  %6 = load ptr, ptr %rb, align 8
  %call1 = call zeroext i1 @ramblock_is_pmem(ptr noundef %6)
  br i1 %call1, label %if.then2, label %if.end

if.then2:                                         ; preds = %if.else
  %7 = load ptr, ptr %rb, align 8
  %idstr = getelementptr inbounds %struct.RAMBlock, ptr %7, i32 0, i32 9
  %arraydecay = getelementptr inbounds [256 x i8], ptr %idstr, i64 0, i64 0
  %8 = load ptr, ptr %rb, align 8
  %host = getelementptr inbounds %struct.RAMBlock, ptr %8, i32 0, i32 2
  %9 = load ptr, ptr %host, align 8
  call void (ptr, ...) @info_report(ptr noundef @.str.95, ptr noundef %arraydecay, ptr noundef %9)
  store i1 false, ptr %retval, align 1
  br label %return

if.end:                                           ; preds = %if.else
  br label %if.end3

if.end3:                                          ; preds = %if.end, %if.then
  br label %for.inc

for.inc:                                          ; preds = %if.end3
  br label %while.cond4

while.cond4:                                      ; preds = %do.end7, %for.inc
  br i1 false, label %while.body5, label %while.end8

while.body5:                                      ; preds = %while.cond4
  br label %do.body6

do.body6:                                         ; preds = %while.body5
  call void @g_assertion_message_expr(ptr noundef null, ptr noundef @.str, i32 noundef 4072, ptr noundef @__func__.ram_has_postcopy, ptr noundef null) #12
  unreachable

do.end7:                                          ; No predecessors!
  br label %while.cond4

while.end8:                                       ; preds = %while.cond4
  %10 = load ptr, ptr %rb, align 8
  %next = getelementptr inbounds %struct.RAMBlock, ptr %10, i32 0, i32 10
  %le_next = getelementptr inbounds %struct.anon.2, ptr %next, i32 0, i32 0
  %11 = load atomic i64, ptr %le_next monotonic, align 8
  store i64 %11, ptr %_val100, align 8
  call void asm sideeffect "", "~{memory},~{dirflag},~{fpsr},~{flags}"() #13, !srcloc !98
  %12 = load ptr, ptr %_val100, align 8
  store ptr %12, ptr %tmp9, align 8
  %13 = load ptr, ptr %tmp9, align 8
  store ptr %13, ptr %rb, align 8
  br label %for.cond, !llvm.loop !99

for.end:                                          ; preds = %for.cond
  %call10 = call zeroext i1 @migrate_postcopy_ram()
  store i1 %call10, ptr %retval, align 1
  br label %return

return:                                           ; preds = %for.end, %if.then2
  %14 = load i1, ptr %retval, align 1
  ret i1 %14
}