; Function Attrs: nounwind sspstrong uwtable
define internal zeroext i1 @ram_has_postcopy(ptr readnone captures(none) %opaque) #0 {
entry:
  %0 = load atomic i64, ptr getelementptr inbounds nuw (i8, ptr @ram_list, i64 56) monotonic, align 8
  tail call void asm sideeffect "", "~{memory},~{dirflag},~{fpsr},~{flags}"() #18, !srcloc !98
  %tobool.not9 = icmp eq i64 %0, 0
  br i1 %tobool.not9, label %for.end, label %for.body

for.body:                                         ; preds = %entry, %while.end8
  %rb.010.in = phi i64 [ %2, %while.end8 ], [ %0, %entry ]
  %rb.010 = inttoptr i64 %rb.010.in to ptr
  %call.i = tail call zeroext i1 @qemu_ram_is_migratable(ptr noundef nonnull %rb.010) #18
  br i1 %call.i, label %lor.rhs.i, label %while.end8

lor.rhs.i:                                        ; preds = %for.body
  %call1.i = tail call zeroext i1 @migrate_ignore_shared() #18
  br i1 %call1.i, label %land.lhs.true.i, label %if.else

land.lhs.true.i:                                  ; preds = %lor.rhs.i
  %call2.i = tail call zeroext i1 @qemu_ram_is_shared(ptr noundef nonnull %rb.010) #18
  br i1 %call2.i, label %migrate_ram_is_ignored.exit, label %if.else

migrate_ram_is_ignored.exit:                      ; preds = %land.lhs.true.i
  %call3.i = tail call zeroext i1 @qemu_ram_is_named_file(ptr noundef nonnull %rb.010) #18
  br i1 %call3.i, label %while.end8, label %if.else

if.else:                                          ; preds = %lor.rhs.i, %land.lhs.true.i, %migrate_ram_is_ignored.exit
  %call1 = tail call zeroext i1 @ramblock_is_pmem(ptr noundef nonnull %rb.010) #18
  br i1 %call1, label %if.then2, label %while.end8

if.then2:                                         ; preds = %if.else
  %idstr = getelementptr inbounds nuw i8, ptr %rb.010, i64 76
  %host = getelementptr inbounds nuw i8, ptr %rb.010, i64 24
  %1 = load ptr, ptr %host, align 8
  tail call void (ptr, ...) @info_report(ptr noundef nonnull @.str.95, ptr noundef nonnull %idstr, ptr noundef %1) #18
  br label %return

while.end8:                                       ; preds = %for.body, %migrate_ram_is_ignored.exit, %if.else
  %next = getelementptr inbounds nuw i8, ptr %rb.010, i64 336
  %2 = load atomic i64, ptr %next monotonic, align 8
  tail call void asm sideeffect "", "~{memory},~{dirflag},~{fpsr},~{flags}"() #18, !srcloc !99
  %tobool.not = icmp eq i64 %2, 0
  br i1 %tobool.not, label %for.end, label %for.body, !llvm.loop !100

for.end:                                          ; preds = %while.end8, %entry
  %call10 = tail call zeroext i1 @migrate_postcopy_ram() #18
  br label %return

return:                                           ; preds = %for.end, %if.then2
  %retval.0 = phi i1 [ false, %if.then2 ], [ %call10, %for.end ]
  ret i1 %retval.0
}